; Function Attrs: nounwind uwtable
define internal noalias ptr @sha512_dupctx(ptr noundef readonly captures(none) %0) #0 {
  %2 = tail call i32 @ossl_prov_is_running() #5
  %.not = icmp eq i32 %2, 0
  br i1 %.not, label %.thread, label %3

3:                                                ; preds = %1
  %4 = tail call noalias ptr @CRYPTO_malloc(i64 noundef 216, ptr noundef nonnull @.str, i32 noundef 88) #5
  %.not5 = icmp eq ptr %4, null
  br i1 %.not5, label %.thread, label %5

5:                                                ; preds = %3
  tail call void @llvm.memcpy.p0.p0.i64(ptr noundef nonnull align 8 dereferenceable(216) %4, ptr noundef nonnull align 8 dereferenceable(216) %0, i64 216, i1 false), !tbaa.struct !19
  br label %.thread

.thread:                                          ; preds = %1, %5, %3
  %6 = phi ptr [ %4, %5 ], [ null, %3 ], [ null, %1 ]
  ret ptr %6
}